(dp0
S'lat'
p1
(lp2
F1.2696075
aF1.2799947
aF1.3179578
aF1.3189597
aF1.3189597
aF1.3189597
aF1.3189597
aF1.2928639
aF1.2799634
aF1.2928639
aF1.2928639
aF1.2928639
aF1.2799634
aF1.2928639
aF1.3099946
aF1.3025589
aF1.2935367
aF1.2799947
aF1.2922212
aF1.2889223
aF1.3179578
aF1.2799634
aF1.2663422
aF1.2799634
aF1.3189597
aF1.2922212
aF1.2928639
aF1.2922212
aF1.2830414
aF1.2935367
aF1.2799947
aF1.2799947
aF1.2928639
aF1.2928639
aF1.2799634
aF1.3189597
aF1.3189597
aF1.2928639
aF1.3189597
aF1.3189597
aF1.2799634
aF1.2799634
aF1.2928639
aF1.2928639
aF1.3189597
aF1.3189597
aF1.3189597
aF1.3030517
aF1.2928639
aF1.2799634
aF1.2891934
aF1.316973
aF1.3137155
aF1.315846
aF1.3131063
aF1.316973
aF1.3137155
aF1.316973
aF1.3137155
aF1.3137155
aF1.3399222
aF1.3156458
aF1.312292
aF1.3089623
aF1.294455
aF1.3814868
aF1.340715
aF1.3750127
aF1.3006647
aF1.3006647
aF1.3296916
aF1.3296916
aF1.3296916
aF1.3326052
aF1.3326052
aF1.3750127
aF1.3296916
aF1.3006647
aF1.3006647
aF1.3307282
aF1.3296916
aF1.340715
aF1.2973663
aF1.2963685
aF1.3317977
aF1.3080383
aF1.3522602
aF1.3124654
aF1.36866815
aF1.3238932
aF1.3897473
aF1.3574316
aF1.4021159
aF1.3137663
aF1.3146082
aF1.3296916
aF1.3146082
aF1.3146082
aF1.3146082
aF1.2963685
aF1.2968182
aF1.3307282
aF1.3111354
aF1.4060233
aF1.3006647
aF1.3101404
aF1.3729675
aF1.2973663
aF1.3051093
aF1.3750127
aF1.3750127
aF1.3146082
aF1.2935677
aFnan
aF1.3006647
aF1.3750127
aF1.3750127
aF1.3750127
aF1.3750127
aF1.3750127
aF1.340715
aF1.3296916
aF1.3131817
aF1.3444479
aF1.3494045
aF1.340715
aF1.3897473
aF1.3897473
aF1.3112819
aF1.312292
aF1.3183423
aF1.3139765
aF1.3414748
aF1.2951056
aF1.340715
aFnan
aF1.3146082
aF1.3146082
aF1.3103522
aF1.3006647
aF1.3070281
aF1.3125529
aF1.3296916
aF1.3414748
aF1.3296916
aF1.3494045
aF1.340715
aF1.340715
aF1.3006647
aF1.3307282
aF1.3307282
aFnan
aF1.3148002
aF1.3296916
aFnan
aF1.3307282
aF1.3307282
aF1.3296916
aF1.3814868
aF1.3064019
aF1.3475472
aF1.3307282
aF1.3146082
aF1.3593397
aF1.3414748
aF1.3907155
aF1.3195267
aF1.3656232
aF1.3146082
asS'lon'
p3
(lp4
F103.8292232
aF103.8175243
aF103.7481695
aF103.7602848
aF103.7602848
aF103.7602848
aF103.7602848
aF103.8188278
aF103.8274614
aF103.8188278
aF103.8188278
aF103.8188278
aF103.8274614
aF103.8188278
aF103.7618293
aF103.7891266
aF103.7854522
aF103.8175243
aF103.8079579
aF103.8378358
aF103.7481695
aF103.8274614
aF103.816778
aF103.8274614
aF103.7602848
aF103.8079579
aF103.8188278
aF103.8079579
aF103.8300666
aF103.7854522
aF103.8175243
aF103.8175243
aF103.8188278
aF103.8188278
aF103.8274614
aF103.7602848
aF103.7602848
aF103.8188278
aF103.7602848
aF103.7602848
aF103.8274614
aF103.8274614
aF103.8188278
aF103.8188278
aF103.7602848
aF103.7602848
aF103.7602848
aF103.8622669
aF103.8188278
aF103.8274614
aF103.8061685
aF103.8523621
aF103.8590764
aF103.8525627
aF103.8484332
aF103.8523621
aF103.8590764
aF103.8523621
aF103.8590764
aF103.8590764
aF103.8838112
aF103.7802237
aF103.9234196
aF103.9260184
aF103.8294684
aF103.893377
aF103.8849927
aF103.9007104
aF103.8362844
aF103.8362844
aF103.8686898
aF103.8686898
aF103.8686898
aF103.8702423
aF103.8702423
aF103.9007104
aF103.8686898
aF103.8362844
aF103.8362844
aF103.8682224
aF103.8686898
aF103.8849927
aF103.8921231
aF103.8254211
aF103.7890516
aF103.9126783
aF103.8795056
aF103.9028554
aF103.877923865765
aF103.7919337
aF103.897242
aF103.880164
aF103.9157385
aF103.7942858
aF103.8015043
aF103.8686898
aF103.8015043
aF103.8015043
aF103.8015043
aF103.8254211
aF103.8754382
aF103.8682224
aF103.9062199
aF103.9007978
aF103.8362844
aF103.8016689
aF103.8805007
aF103.8921231
aF103.82309
aF103.9007104
aF103.9007104
aF103.8015043
aF103.8236811
aFnan
aF103.8362844
aF103.9007104
aF103.9007104
aF103.9007104
aF103.9007104
aF103.9007104
aF103.8849927
aF103.8686898
aF103.8304178
aF103.870012
aF103.8657575
aF103.8849927
aF103.897242
aF103.897242
aF103.827679
aF103.9234196
aF103.9128622
aF103.9010914
aF103.8825009
aF103.8854071
aF103.8849927
aFnan
aF103.8015043
aF103.8015043
aF103.8994258
aF103.8362844
aF103.8212224
aF103.8941972
aF103.8686898
aF103.8825009
aF103.8686898
aF103.8657575
aF103.8849927
aF103.8849927
aF103.8362844
aF103.8682224
aF103.8682224
aFnan
aF103.9028908
aF103.8686898
aFnan
aF103.8682224
aF103.8682224
aF103.8686898
aF103.893377
aF103.8486959
aF103.8828509
aF103.8682224
aF103.8015043
aF103.8774346
aF103.8825009
aF103.9046798
aF103.808382
aF103.8979777
aF103.8015043
as.