(dp0
S'lat'
p1
(lp2
F1.2891934
aF1.2867939
aF1.3007046
aF1.303113
aF1.3112819
aF1.2764082
aF1.3091171
aF1.3014523
aF1.2827988
aF1.3151296
aF1.3145886
aF1.3131817
aF1.3414748
aF1.3030517
aF1.3137155
aF1.3017186
aF1.2978624
aF1.34516
aF1.3609495
aF1.3132865
aF1.3037298
aF1.3789725
aF1.3064019
aF1.3126878
aF1.274226
aF1.3556946
aF1.3132997
aF1.3078547
aF1.2733895
aF1.311064
aF1.3103522
aF1.2825689
aF1.3322692
aF1.2862407
aF1.2819401
aF1.3189503
aF1.2922212
aF1.3814868
aF1.3864975
aF1.3182803
aF1.3216191
aF1.3220923
aF1.24079825
aF1.2777638
aF1.3046751
aF1.30409
aF1.3438202
aF1.2926755
aF1.2799947
aF1.314279
aF1.3041414
aF1.3091212
aF1.311083
aF1.3241682
aF1.3232779
aFnan
aF1.3094942
aF1.308929
aF1.3085372
aF1.312292
aF1.3111812
aF1.3447896
aF1.4021159
aF1.3120036
aF1.3121145
aF1.2837819
aF1.2741807
aF1.3131659
aF1.316278
aF1.3222671
aF1.3220278
aF1.314412
aF1.3169921
aF1.3115299
aFnan
aF1.3642691
aF1.3137663
aF1.2951056
aF1.2997493
aF1.3443758
aF1.3619104
aF1.2755214
aF1.3012035
aF1.3006647
aF1.3112743
aF31.778165
aF1.3079443
aF1.3134311
aF1.2889223
aF1.311463
aF1.3131063
aF1.3583828
aF1.3101404
aF51.9435937
aF1.3105096
aF1.2943737
aF1.3692453
aF1.3656232
aF1.3522602
aF1.3634348
aF1.3729675
aF1.2904143
aF1.3114703
aFnan
aF1.3399222
aF1.3233052
aF1.3454546
aF1.3189597
aFnan
aF1.2789199
aF1.2834827
aF1.3119829
aF1.2954907
aF1.3683481
aFnan
aF1.3544618
aF1.3119754
aF1.3025824
aF1.3669244
aF1.3155175
aF1.3303531
aF1.3593397
aF1.3078672
aF1.2921792
aF1.2943776
aF1.2935677
aF1.3156403
aF1.3124654
aF1.3146511
aF1.3062189
aF1.3148002
aF1.2688091
aF1.2960916
aF1.294455
aF1.3175895
aF1.3102793
aFnan
aF1.2663422
aF1.2673293
aF1.2799634
aF1.3194083
aF1.3105597
aF1.3119031
aF1.3620977
aF1.3574316
aF1.3104256
aF1.3146082
aF1.313539
aF1.3302553
aF1.348568
aF1.3202225
aF1.3636402
aF1.3125567
aF1.3541601
aF1.3156484
aF1.3150306
aF1.315647
aF1.3554029
aF1.3183423
aF1.3158847
aF1.3449668
aF1.3138242
aF1.3127843
aF1.3117923
aF1.3503393
aF1.3107668
aF1.3098539
aF1.3488133
aF1.2807531
aFnan
aF1.2839975
aF1.3137907
aF1.2989822
aF1.3192461
aF1.27389
aF1.2783372
aF1.3091967
aF1.3077122
aF1.3128997
aF1.3083802
aF1.3076731
aF1.2788159
aF1.316973
aF1.3307282
aFnan
aF1.2973663
aF1.2737518
aF1.2698138
aF1.3156425
aF1.3159535
aF1.3156458
aF1.340333
aF1.3044859
aF1.3132901
aF1.3061726
aF1.3070281
aF1.3096999
aF1.2963685
aF1.2957066
aF1.2494187
aF1.3066286
aF1.3015062
aF1.3025589
aF1.3113382
aF1.3022697
aF1.315846
aF1.3613345
aF1.3133079
aF1.2904527
aF1.2822169
aF1.272843
aF1.3475472
aF1.2826155
aF1.3122093
aF1.3326052
aF1.3664966
aF1.3675537
aF1.3358083
aF1.2928639
aF1.3000848
aF1.3111354
aF1.401008
aF1.3919458
aF1.4060233
aF1.3183675
aF1.3195267
aF1.2961708
aF1.3094107
aF1.3129979
aF1.3140137
aF1.317524
aF1.2960827
aF1.3633452
aFnan
aF1.3010305
aF1.2929551
aF1.3907155
aF1.3183925
aF1.316755
aF1.306289
aF1.3097055
aF1.3626604
aF1.3010963
aF1.3147037
aF1.3062496
aF1.3814885
aF1.3897473
aF1.3529841
aF1.3494045
aF1.3663874
aF1.3070742
aF1.3054506
aF1.29443
aF1.2752631
aF1.3089623
aF1.3622252
aF1.3152345
aF1.3238932
aF1.3109395
aF1.3103367
aF1.3448499
aF1.3444479
aF1.2819204
aF1.2935367
aF1.2751287
aF1.3058462
aF1.3080383
aF1.3080383
aF1.3080005
aF1.3141905
aF1.3123851
aF1.3159835
aF1.3082519
aF1.2919661
aF1.3122775
aF1.3137992
aFnan
aFnan
aF1.3083691
aF1.3102295
aF1.3622097
aFnan
aF1.3283911
aF1.3051093
aF1.3125529
aF1.2968182
aF1.2730053
aF1.2696075
aF1.3064358
aF1.3139765
aF1.36866815
aF1.3026215
aF1.3108909
aF1.2886244
aF1.3123976
aF1.340715
aF1.3768695
aF1.3768057
aF1.3750127
aF1.3124789
aF1.298388
aF1.3066603
aF1.3139686
aF1.3167376
aFnan
aF1.3187697
aF1.3099946
aF1.3158537
aF1.3317977
aF1.2694917
aF1.31529
aF1.3357565
aF1.3296956
aF1.317255
aF1.2753561
aFnan
aF1.386093
aF1.2830414
aF1.3397313
aF1.2834694
aF1.2880484
asS'lon'
p3
(lp4
F103.8061685
aF103.801106059927
aF103.8976541
aF103.9005315
aF103.827679
aF103.8470382
aF103.8286312
aF103.8879595
aF103.7829132
aF103.8343368
aF103.8286983
aF103.8304178
aF103.8825009
aF103.8622669
aF103.8590764
aF103.8526599
aF103.8232846
aF103.8410812
aF103.8726439
aF103.8493304
aF103.9038983
aF103.8791376
aF103.8486959
aF103.8962018
aF103.841253
aF103.866026
aF103.8476412
aF103.901975
aF103.8622598
aF103.9003737
aF103.8994258
aF103.8311128
aF103.7927883
aF103.8384184
aF103.8457788
aF103.8150118
aF103.8079579
aF103.893377
aF103.8961362
aF103.8016284
aF103.8060526
aF103.8008672
aF103.830946624997
aF103.8423447
aF103.825654
aF103.8291515
aF103.8681595
aF103.8259647
aF103.8175243
aF103.8515964
aF103.7848308
aF103.8304829
aF103.8307898
aF103.8005386
aF103.807173
aFnan
aF103.9050798
aF103.8962452
aF103.8896435
aF103.9234196
aF103.9234404
aF103.8716821
aF103.9157385
aF103.9304605
aF103.9313382
aF103.8340499
aF103.8437098
aF103.9023652
aF103.8309131
aF103.757337
aF103.7555792
aF103.8064533
aF103.8071744
aF103.8237069
aFnan
aF103.8852211
aF103.7942858
aF103.8854071
aF103.8577827
aF103.8747551
aF103.8790522
aF103.8445043
aF103.8242214
aF103.8362844
aF103.8921396
aF-106.3471179
aF103.8993628
aF103.8958353
aF103.8378358
aF103.8908435
aF103.8484332
aF103.876788
aF103.8016689
aF4.4034034
aF103.8050302
aF103.8260153
aF103.8799456
aF103.8979777
aF103.8795056
aF103.895686
aF103.8805007
aF103.8295904
aF103.8941983
aFnan
aF103.8838112
aF103.7945655
aF103.8735489
aF103.7602848
aFnan
aF103.7918551
aF103.8266802
aF103.7973046
aF103.828267
aF103.8926791
aFnan
aF103.8869032
aF103.9274689
aF103.8616766
aF103.8848767
aF103.9258016
aF103.8742388
aF103.8774346
aF103.8621646
aF103.8246486
aF103.8191378
aF103.8236811
aF103.8547326
aF103.9028554
aF103.9083583
aF103.9047961
aF103.9028908
aF103.8253737
aF103.8295565
aF103.8294684
aF103.8304548
aF103.8479606
aFnan
aF103.816778
aF103.8119551
aF103.8274614
aF103.8082757
aF103.8565769
aF103.9047872
aF103.8854779
aF103.880164
aF103.8242578
aF103.8015043
aF103.7965884
aF103.8666362
aF103.8770803
aF103.8227292
aF103.8879102
aF103.8920731
aF103.8766584
aF103.8997592
aF103.9010752
aF103.9041358
aF103.8678399
aF103.9128622
aF103.9092827
aF103.8800779
aF103.9101744
aF103.9106484
aF103.9110849
aF103.8773039
aF103.9115201
aF103.9119375
aF103.8801317
aF103.7868173
aFnan
aF103.82495
aF103.9036523
aF103.8889363
aF103.8236422
aF103.864773
aF103.8546297
aF103.9270235
aF103.92044
aF103.857035
aF103.9000051
aF103.910713
aF103.8488095
aF103.8523621
aF103.8682224
aFnan
aF103.8921231
aF103.845887
aF103.8217022
aF103.7827059
aF103.7859682
aF103.7802237
aF103.8793586
aF103.8839553
aF103.9326858
aF103.8208786
aF103.8212224
aF103.8213641
aF103.8254211
aF103.8535481
aF103.8418186
aF103.903591
aF103.8261915
aF103.7891266
aF103.8251745
aF103.8328781
aF103.8525627
aF103.8796336
aF103.9309926
aF103.852038
aF103.7857448
aF103.8017796
aF103.8828509
aF103.8398778
aF103.8581329
aF103.8702423
aF103.8823104
aF103.8775954
aF103.8637519
aF103.8188278
aF103.8506219
aF103.9062199
aF103.9090685
aF103.9125022
aF103.9007978
aF103.7894483
aF103.808382
aF103.799574
aF103.8533166
aF103.8536414
aF103.9047651
aF103.8527675
aF103.867918
aF103.881242
aFnan
aF103.8141274
aF103.8437563
aF103.9046798
aF103.8278865
aF103.8279815
aF103.7889548
aF103.8929374
aF103.8774165
aF103.8813607
aF103.8373031
aF103.9066
aF103.901675
aF103.897242
aF103.8682741
aF103.8657575
aF103.8729452
aF103.900308582936
aF103.8994772
aF103.8280683
aF103.8483973
aF103.9260184
aF103.8843079
aF103.8553375
aF103.7919337
aF103.8582313
aF103.8063772
aF103.8687149
aF103.870012
aF103.845069
aF103.7854522
aF103.8372097
aF103.8245162
aF103.9126783
aF103.9126783
aF103.9068542
aF103.8234702
aF103.8322721
aF103.8261181
aF103.908605
aF103.8046919
aF103.8593084
aF103.8575061
aFnan
aFnan
aF103.8196278
aF103.7981955
aF103.8986136
aFnan
aF103.810096
aF103.82309
aF103.8941972
aF103.8754382
aF103.8074064
aF103.8292232
aF103.9134192
aF103.9010914
aF103.877923865765
aF103.8264724
aF103.8596853
aF103.8483674
aF103.9237236
aF103.8849927
aF103.8999933
aF103.9025703
aF103.9007104
aF103.8274958
aF103.851199
aF103.767246
aF103.7591583
aF103.7551503
aFnan
aF103.7442597
aF103.7618293
aF103.7557573
aF103.7890516
aF103.8151032
aF103.9294906
aF103.8688157
aF103.8679564
aF103.8090101
aF103.8417621
aFnan
aF103.8394179
aF103.8300666
aF103.8698792
aF103.7858957
aF103.8336377
as.